ccollections
defaultdict
p0
(c__main__
named_none
p1
tp2
Rp3
S'(64, (3, 3), (2, 2), 128)'
p4
cnumpy.core.multiarray
scalar
p5
(cnumpy
dtype
p6
(S'f8'
p7
I0
I1
tp8
Rp9
(I3
S'<'
p10
NNNI-1
I-1
I0
tp11
bS'j\x03\x9d6\xd0i\xef?'
p12
tp13
Rp14
sS'(96, (5, 5), (2, 2), 256)'
p15
g5
(g9
S'\x9a\x99\x99\x99\x99\x99\xef?'
p16
tp17
Rp18
sS'(32, (5, 5), (2, 2), 512)'
p19
g5
(g9
S'\xd8\x197\xab\xe5\x8d\xef?'
p20
tp21
Rp22
sS'(32, (3, 3), (2, 2), 128)'
p23
g5
(g9
S"'p\x02g\xa1I\xef?"
p24
tp25
Rp26
sS'(96, (5, 5), (2, 2), 1024)'
p27
g5
(g9
S'\xee\xb3\x0b\x88M\xa5\xef?'
p28
tp29
Rp30
sS'(96, (3, 3), (2, 2), 256)'
p31
g5
(g9
S'\xa9\xbe\x1d\x0f%\x84\xef?'
p32
tp33
Rp34
sS'(64, (5, 5), (2, 2), 256)'
p35
g5
(g9
S'\xcc\x91\xe9e+\x83\xef?'
p36
tp37
Rp38
sS'(32, (3, 3), (2, 2), 1024)'
p39
g5
(g9
S'\xcc\x91\xe9e+\x83\xef?'
p40
tp41
Rp42
sS'(32, (5, 5), (2, 2), 256)'
p43
g5
(g9
S'0\xd1\xdf\xc9jy\xef?'
p44
tp45
Rp46
sS'(96, (3, 3), (2, 2), 1024)'
p47
g5
(g9
S't\xda@G\xa6\x97\xef?'
p48
tp49
Rp50
sS'(32, (5, 5), (2, 2), 1024)'
p51
g5
(g9
S'\xbdle\xf0\x9f\x98\xef?'
p52
tp53
Rp54
sS'(96, (5, 5), (2, 2), 128)'
p55
g5
(g9
S'0\xd1\xdf\xc9jy\xef?'
p56
tp57
Rp58
sS'(32, (5, 5), (2, 2), 128)'
p59
g5
(g9
S'\xf1\x15_\xf1\x15_\xef?'
p60
tp61
Rp62
sS'(64, (3, 3), (2, 2), 256)'
p63
g5
(g9
S'\xf0d\xb5\xbc1\x82\xef?'
p64
tp65
Rp66
sS'(32, (3, 3), (2, 2), 512)'
p67
g5
(g9
S'\x1ar\xee\xb3\x0b\x88\xef?'
p68
tp69
Rp70
sS'(64, (5, 5), (2, 2), 512)'
p71
g5
(g9
S'\x9e\xe7y>\x80\x9d\xef?'
p72
tp73
Rp74
sS'highest'
p75
g30
sS'(64, (5, 5), (2, 2), 1024)'
p76
g5
(g9
S'\x12\x87\xd7\xdeS\xa4\xef?'
p77
tp78
Rp79
sS'(64, (5, 5), (2, 2), 128)'
p80
g5
(g9
S'wwwwww\xef?'
p81
tp82
Rp83
sS'(96, (5, 5), (2, 2), 512)'
p84
g5
(g9
S'\xe8y\x9e\xe7y\x9e\xef?'
p85
tp86
Rp87
sS'(32, (3, 3), (2, 2), 256)'
p88
g5
(g9
S'Y\xf2\x8b\xc5W|\xef?'
p89
tp90
Rp91
sS'(96, (3, 3), (2, 2), 128)'
p92
g5
(g9
S'\xf8O\xcc\x91\xe9e\xef?'
p93
tp94
Rp95
sS'(96, (3, 3), (2, 2), 512)'
p96
g5
(g9
S'\xb4FkT\xdf\x8e\xef?'
p97
tp98
Rp99
sS'(64, (3, 3), (2, 2), 512)'
p100
g5
(g9
S'b\x18\x86a\x18\x86\xef?'
p101
tp102
Rp103
sS'(64, (3, 3), (2, 2), 1024)'
p104
g5
(g9
S'\xb62\xf8O\xcc\x91\xef?'
p105
tp106
Rp107
s.